target datalayout = "e-m:e-p270:32:32-p271:32:32-p272:64:64-i64:64-i128:128-f80:128-n8:16:32:64-S128"
target triple = "x86_64-pc-linux-gnu"

@sent_reg_time = internal global i64 0, align 8
@_shutdown = internal global i32 0, align 4
@.str.81 = private unnamed_addr constant [30 x i8] c"Unable to get TLS certificate\00", align 1
@.str.82 = private unnamed_addr constant [60 x i8] c"Unable to register with slurm controller (retry in %us): %s\00", align 1
@.str.83 = private unnamed_addr constant [12 x i8] c"%s complete\00", align 1
@__func__._registration_engine = private unnamed_addr constant [21 x i8] c"_registration_engine\00", align 1

; Function Attrs: nounwind uwtable
define internal ptr @_registration_engine(ptr noundef %0) #0 {
  %2 = alloca ptr, align 8
  %3 = alloca i32, align 4
  %4 = alloca i32, align 4
  %5 = alloca i32, align 4
  store ptr %0, ptr %2, align 8
  call void @llvm.lifetime.start.p0(i64 4, ptr %3) #11
  store i32 1, ptr %3, align 4
  %6 = call i32 @_increment_thd_count(i1 noundef zeroext true)
  br label %7

7:                                                ; preds = %49, %1
  %8 = load i32, ptr @_shutdown, align 4
  %9 = icmp ne i32 %8, 0
  br i1 %9, label %14, label %10

10:                                               ; preds = %7
  %11 = load i64, ptr @sent_reg_time, align 8
  %12 = icmp ne i64 %11, 0
  %13 = xor i1 %12, true
  br label %14

14:                                               ; preds = %10, %7
  %15 = phi i1 [ false, %7 ], [ %13, %10 ]
  br i1 %15, label %16, label %50

16:                                               ; preds = %14
  call void @llvm.lifetime.start.p0(i64 4, ptr %4) #11
  %17 = call i32 @_get_tls_certificate()
  %18 = icmp ne i32 %17, 0
  br i1 %18, label %19, label %21

19:                                               ; preds = %16
  %20 = call i32 (ptr, ...) @error(ptr noundef @.str.81)
  br label %21

21:                                               ; preds = %19, %16
  %22 = call i32 @send_registration_msg(i32 noundef 0)
  store i32 %22, ptr %4, align 4
  %23 = icmp ne i32 %22, 0
  br i1 %23, label %25, label %24

24:                                               ; preds = %21
  store i32 3, ptr %5, align 4
  br label %47

25:                                               ; preds = %21
  br label %26

26:                                               ; preds = %25
  br label %27

27:                                               ; preds = %26
  %28 = call i32 @get_log_level()
  %29 = icmp sge i32 %28, 5
  br i1 %29, label %30, label %34

30:                                               ; preds = %27
  %31 = load i32, ptr %3, align 4
  %32 = load i32, ptr %4, align 4
  %33 = call ptr @slurm_strerror(i32 noundef %32)
  call void (i32, ptr, ...) @log_var(i32 noundef 5, ptr noundef @.str.82, i32 noundef %31, ptr noundef %33)
  br label %34

34:                                               ; preds = %30, %27
  br label %35

35:                                               ; preds = %34
  br label %36

36:                                               ; preds = %35
  br label %37

37:                                               ; preds = %36
  br label %38

38:                                               ; preds = %37
  %39 = load i32, ptr %3, align 4
  %40 = call i32 @sleep(i32 noundef %39)
  %41 = load i32, ptr %3, align 4
  %42 = mul i32 %41, 2
  store i32 %42, ptr %3, align 4
  %43 = load i32, ptr %3, align 4
  %44 = icmp ugt i32 %43, 128
  br i1 %44, label %45, label %46

45:                                               ; preds = %38
  store i32 128, ptr %3, align 4
  br label %46

46:                                               ; preds = %45, %38
  store i32 0, ptr %5, align 4
  br label %47

47:                                               ; preds = %46, %24
  call void @llvm.lifetime.end.p0(i64 4, ptr %4) #11
  %48 = load i32, ptr %5, align 4
  switch i32 %48, label %61 [
    i32 0, label %49
    i32 3, label %50
  ]

49:                                               ; preds = %47
  br label %7, !llvm.loop !14

50:                                               ; preds = %47, %14
  br label %51

51:                                               ; preds = %50
  br label %52

52:                                               ; preds = %51
  %53 = call i32 @get_log_level()
  %54 = icmp sge i32 %53, 7
  br i1 %54, label %55, label %56

55:                                               ; preds = %52
  call void (i32, ptr, ...) @log_var(i32 noundef 7, ptr noundef @.str.83, ptr noundef @__func__._registration_engine)
  br label %56

56:                                               ; preds = %55, %52
  br label %57

57:                                               ; preds = %56
  br label %58

58:                                               ; preds = %57
  br label %59

59:                                               ; preds = %58
  br label %60

60:                                               ; preds = %59
  call void @_decrement_thd_count()
  store i32 1, ptr %5, align 4
  call void @llvm.lifetime.end.p0(i64 4, ptr %3) #11
  ret ptr null

61:                                               ; preds = %47
  unreachable
}