; Function Attrs: nounwind uwtable
define internal noalias noundef ptr @_registration_engine(ptr readnone captures(none) %0) #0 {
  %2 = tail call fastcc i32 @_increment_thd_count(i1 noundef zeroext true)
  %.b14 = load i1, ptr @_shutdown, align 4
  %3 = load i64, ptr @sent_reg_time, align 8
  %.not15 = icmp ne i64 %3, 0
  %.not816 = select i1 %.b14, i1 true, i1 %.not15
  br i1 %.not816, label %.thread, label %.lr.ph

.lr.ph:                                           ; preds = %1, %14
  %.0617 = phi i32 [ %spec.store.select, %14 ], [ 1, %1 ]
  %4 = tail call fastcc i32 @_get_tls_certificate()
  %.not9 = icmp eq i32 %4, 0
  br i1 %.not9, label %7, label %5

5:                                                ; preds = %.lr.ph
  %6 = tail call i32 (ptr, ...) @error(ptr noundef nonnull @.str.81) #18
  br label %7

7:                                                ; preds = %5, %.lr.ph
  %8 = tail call i32 @send_registration_msg(i32 noundef 0)
  %.not10 = icmp eq i32 %8, 0
  br i1 %.not10, label %.thread, label %9

9:                                                ; preds = %7
  %10 = tail call i32 @get_log_level() #18
  %11 = icmp sgt i32 %10, 4
  br i1 %11, label %12, label %14

12:                                               ; preds = %9
  %13 = tail call ptr @slurm_strerror(i32 noundef %8) #18
  tail call void (i32, ptr, ...) @log_var(i32 noundef 5, ptr noundef nonnull @.str.82, i32 noundef %.0617, ptr noundef %13) #18
  br label %14

14:                                               ; preds = %9, %12
  %15 = tail call i32 @sleep(i32 noundef %.0617) #18
  %16 = shl nuw nsw i32 %.0617, 1
  %spec.store.select = tail call i32 @llvm.umin.i32(i32 %16, i32 128)
  %.b = load i1, ptr @_shutdown, align 4
  %17 = load i64, ptr @sent_reg_time, align 8
  %.not = icmp ne i64 %17, 0
  %.not8 = select i1 %.b, i1 true, i1 %.not
  br i1 %.not8, label %.thread, label %.lr.ph

.thread:                                          ; preds = %14, %7, %1
  %18 = tail call i32 @get_log_level() #18
  %19 = icmp sgt i32 %18, 6
  br i1 %19, label %20, label %21

20:                                               ; preds = %.thread
  tail call void (i32, ptr, ...) @log_var(i32 noundef 7, ptr noundef nonnull @.str.83, ptr noundef nonnull @__func__._registration_engine) #18
  br label %21

21:                                               ; preds = %20, %.thread
  tail call fastcc void @_decrement_thd_count()
  ret ptr null
}